; Function Attrs: mustprogress nounwind uwtable
define hidden void @_ZN17NativeHeapTrimmer11print_stateEP12outputStream(ptr noundef %0) local_unnamed_addr #0 align 2 {
  %2 = load ptr, ptr @_ZL16g_trimmer_thread, align 8
  %.not = icmp eq ptr %2, null
  br i1 %.not, label %28, label %3

3:                                                ; preds = %1
  %4 = load i32, ptr @TrimNativeHeapInterval, align 4
  tail call void (ptr, ptr, ...) @_ZN12outputStream8print_crEPKcz(ptr noundef nonnull align 8 dereferenceable(56) %0, ptr noundef nonnull @.str.4, i32 noundef %4) #7
  %5 = load ptr, ptr @_ZL16g_trimmer_thread, align 8
  %6 = getelementptr inbounds i8, ptr %5, i64 920
  %7 = load ptr, ptr %6, align 8
  %8 = tail call noundef zeroext i1 @_ZN7VMError17is_error_reportedEv() #7
  %.not.i.i5.i = icmp eq ptr %7, null
  %.not.i.i.i = select i1 %8, i1 true, i1 %.not.i.i5.i
  br i1 %.not.i.i.i, label %_ZN22ConditionalMutexLockerC2EP5MutexbNS0_18SafepointCheckFlagE.exit.thread.i, label %15

_ZN22ConditionalMutexLockerC2EP5MutexbNS0_18SafepointCheckFlagE.exit.thread.i: ; preds = %3
  %9 = getelementptr inbounds i8, ptr %5, i64 936
  %10 = load i64, ptr %9, align 8
  %11 = getelementptr inbounds i8, ptr %5, i64 928
  %12 = load i8, ptr %11, align 8
  %13 = getelementptr inbounds i8, ptr %5, i64 930
  %14 = load i16, ptr %13, align 2
  br label %_ZNK23NativeHeapTrimmerThread11print_stateEP12outputStream.exit

15:                                               ; preds = %3
  tail call void @_ZN5Mutex28lock_without_safepoint_checkEv(ptr noundef nonnull align 8 dereferenceable(104) %7) #7
  %16 = getelementptr inbounds i8, ptr %5, i64 936
  %17 = load i64, ptr %16, align 8
  %18 = getelementptr inbounds i8, ptr %5, i64 928
  %19 = load i8, ptr %18, align 8
  %20 = getelementptr inbounds i8, ptr %5, i64 930
  %21 = load i16, ptr %20, align 2
  tail call void @_ZN5Mutex6unlockEv(ptr noundef nonnull align 8 dereferenceable(104) %7) #7
  br label %_ZNK23NativeHeapTrimmerThread11print_stateEP12outputStream.exit

_ZNK23NativeHeapTrimmerThread11print_stateEP12outputStream.exit: ; preds = %_ZN22ConditionalMutexLockerC2EP5MutexbNS0_18SafepointCheckFlagE.exit.thread.i, %15
  %22 = phi i16 [ %14, %_ZN22ConditionalMutexLockerC2EP5MutexbNS0_18SafepointCheckFlagE.exit.thread.i ], [ %21, %15 ]
  %23 = phi i8 [ %12, %_ZN22ConditionalMutexLockerC2EP5MutexbNS0_18SafepointCheckFlagE.exit.thread.i ], [ %19, %15 ]
  %24 = phi i64 [ %10, %_ZN22ConditionalMutexLockerC2EP5MutexbNS0_18SafepointCheckFlagE.exit.thread.i ], [ %17, %15 ]
  %25 = zext i16 %22 to i32
  %26 = and i8 %23, 1
  %27 = zext nneg i8 %26 to i32
  tail call void (ptr, ptr, ...) @_ZN12outputStream8print_crEPKcz(ptr noundef nonnull align 8 dereferenceable(56) %0, ptr noundef nonnull @.str.24, i64 noundef %24, i32 noundef %25, i32 noundef %27) #7
  br label %29

28:                                               ; preds = %1
  tail call void (ptr, ptr, ...) @_ZN12outputStream8print_crEPKcz(ptr noundef nonnull align 8 dereferenceable(56) %0, ptr noundef nonnull @.str.5) #7
  br label %29

29:                                               ; preds = %28, %_ZNK23NativeHeapTrimmerThread11print_stateEP12outputStream.exit
  ret void
}